	.file	"math_ops.c"
	.text
	.globl	_add
	.def	_add;	.scl	2;	.type	32;	.endef
_add:
LFB0:
	.cfi_startproc
	pushl	%ebp
	.cfi_def_cfa_offset 8
	.cfi_offset 5, -8
	movl	%esp, %ebp
	.cfi_def_cfa_register 5
	movl	8(%ebp), %edx
	movl	12(%ebp), %eax
	addl	%edx, %eax
	popl	%ebp
	.cfi_restore 5
	.cfi_def_cfa 4, 4
	ret
	.cfi_endproc
LFE0:
	.globl	_subtract
	.def	_subtract;	.scl	2;	.type	32;	.endef
_subtract:
LFB1:
	.cfi_startproc
	pushl	%ebp
	.cfi_def_cfa_offset 8
	.cfi_offset 5, -8
	movl	%esp, %ebp
	.cfi_def_cfa_register 5
	movl	8(%ebp), %eax
	subl	12(%ebp), %eax
	popl	%ebp
	.cfi_restore 5
	.cfi_def_cfa 4, 4
	ret
	.cfi_endproc
LFE1:
	.globl	_multiply
	.def	_multiply;	.scl	2;	.type	32;	.endef
_multiply:
LFB2:
	.cfi_startproc
	pushl	%ebp
	.cfi_def_cfa_offset 8
	.cfi_offset 5, -8
	movl	%esp, %ebp
	.cfi_def_cfa_register 5
	movl	8(%ebp), %eax
	imull	12(%ebp), %eax
	popl	%ebp
	.cfi_restore 5
	.cfi_def_cfa 4, 4
	ret
	.cfi_endproc
LFE2:
	.globl	_divide
	.def	_divide;	.scl	2;	.type	32;	.endef
_divide:
LFB3:
	.cfi_startproc
	pushl	%ebp
	.cfi_def_cfa_offset 8
	.cfi_offset 5, -8
	movl	%esp, %ebp
	.cfi_def_cfa_register 5
	cmpl	$0, 12(%ebp)
	jne	L8
	movl	$0, %eax
	jmp	L9
L8:
	movl	8(%ebp), %eax
	cltd
	idivl	12(%ebp)
L9:
	popl	%ebp
	.cfi_restore 5
	.cfi_def_cfa 4, 4
	ret
	.cfi_endproc
LFE3:
	.ident	"GCC: (MinGW.org GCC-6.3.0-1) 6.3.0"
